; Function Attrs: mustprogress uwtable
define noundef zeroext i1 @_Z32alts_tsi_handshaker_has_shutdownP19alts_tsi_handshaker(ptr noundef %0) local_unnamed_addr #3 personality ptr @__gxx_personality_v0 {
  %2 = alloca %"class.absl::lts_20240722::log_internal::LogMessageFatal", align 8
  %.not.i = icmp eq ptr %0, null
  br i1 %.not.i, label %11, label %3, !prof !27

3:                                                ; preds = %1
  %4 = getelementptr inbounds nuw i8, ptr %0, i64 104
  tail call void @_ZN4absl12lts_202407225Mutex4LockEv(ptr noundef nonnull align 8 dereferenceable(8) %4)
  %5 = getelementptr inbounds nuw i8, ptr %0, i64 120
  %6 = load i8, ptr %5, align 8, !tbaa !50, !range !62, !noundef !63
  invoke void @_ZN4absl12lts_202407225Mutex6UnlockEv(ptr noundef nonnull align 8 dereferenceable(8) %4)
          to label %_ZN4absl12lts_202407229MutexLockD2Ev.exit unwind label %7

7:                                                ; preds = %3
  %8 = landingpad { ptr, i32 }
          catch ptr null
  %9 = extractvalue { ptr, i32 } %8, 0
  tail call void @__clang_call_terminate(ptr %9) #32
  unreachable

_ZN4absl12lts_202407229MutexLockD2Ev.exit:        ; preds = %3
  %10 = trunc nuw i8 %6 to i1
  ret i1 %10

11:                                               ; preds = %1
  %12 = tail call noundef nonnull ptr @_ZN4absl12lts_2024072212log_internal17MakeCheckOpStringIPKvS4_EEPNSt7__cxx1112basic_stringIcSt11char_traitsIcESaIcEEET_T0_PKc(ptr noundef null, ptr noundef null, ptr noundef nonnull @.str.12)
  call void @llvm.lifetime.start.p0(i64 16, ptr nonnull %2) #29
  %13 = load ptr, ptr %12, align 8, !tbaa !64
  %14 = getelementptr inbounds nuw i8, ptr %12, i64 8
  %15 = load i64, ptr %14, align 8, !tbaa !67
  call void @_ZN4absl12lts_2024072212log_internal15LogMessageFatalC1EPKciSt17basic_string_viewIcSt11char_traitsIcEE(ptr noundef nonnull align 8 dereferenceable(16) %2, ptr noundef nonnull @.str, i32 noundef 640, i64 %15, ptr %13) #30
  call void @_ZN4absl12lts_2024072212log_internal15LogMessageFatalD1Ev(ptr noundef nonnull align 8 dereferenceable(16) %2) #32
  unreachable
}